ccopy_reg
_reconstructor
p0
(cneat.genome
DefaultGenome
p1
c__builtin__
object
p2
Ntp3
Rp4
(dp5
S'connections'
p6
(dp7
(I-5
I0
tp8
g0
(cneat.genes
DefaultConnectionGene
p9
g2
Ntp10
Rp11
(dp12
S'enabled'
p13
I01
sS'weight'
p14
F-0.1991350424339957
sS'key'
p15
g8
sbs(I-2
I1
tp16
g0
(g9
g2
Ntp17
Rp18
(dp19
g13
I01
sg14
F4.447464263538269
sg15
g16
sbs(I-5
I1
tp20
g0
(g9
g2
Ntp21
Rp22
(dp23
g13
I01
sg14
F7.541415203185604
sg15
g20
sbs(I-1
I0
tp24
g0
(g9
g2
Ntp25
Rp26
(dp27
g13
I01
sg14
F1.324789774963254
sg15
g24
sbs(I-6
I1
tp28
g0
(g9
g2
Ntp29
Rp30
(dp31
g13
I00
sg14
F-1.1077213474566747
sg15
g28
sbs(I-6
I0
tp32
g0
(g9
g2
Ntp33
Rp34
(dp35
g13
I00
sg14
F2.270147487851059
sg15
g32
sbs(I-1
I1
tp36
g0
(g9
g2
Ntp37
Rp38
(dp39
g13
I01
sg14
F0.5503008249666376
sg15
g36
sbs(I-3
I0
tp40
g0
(g9
g2
Ntp41
Rp42
(dp43
g13
I01
sg14
F-2.4870558948673107
sg15
g40
sbs(I-3
I1
tp44
g0
(g9
g2
Ntp45
Rp46
(dp47
g13
I01
sg14
F-0.9356955478527322
sg15
g44
sbs(I-7
I0
tp48
g0
(g9
g2
Ntp49
Rp50
(dp51
g13
I01
sg14
F-2.2586185568203243
sg15
g48
sbs(I0
I0
tp52
g0
(g9
g2
Ntp53
Rp54
(dp55
g13
I01
sg14
F5.986071951548013
sg15
g52
sbs(I-4
I1
tp56
g0
(g9
g2
Ntp57
Rp58
(dp59
g13
I01
sg14
F-0.4806453708642603
sg15
g56
sbs(I-7
I1
tp60
g0
(g9
g2
Ntp61
Rp62
(dp63
g13
I01
sg14
F-0.5140853144523558
sg15
g60
sbs(I-4
I0
tp64
g0
(g9
g2
Ntp65
Rp66
(dp67
g13
I01
sg14
F-0.9554903547690885
sg15
g64
sbs(I-8
I1
tp68
g0
(g9
g2
Ntp69
Rp70
(dp71
g13
I01
sg14
F-5.708885410047714
sg15
g68
sbs(I-8
I0
tp72
g0
(g9
g2
Ntp73
Rp74
(dp75
g13
I01
sg14
F0.5609286716288922
sg15
g72
sbs(I1
I1
tp76
g0
(g9
g2
Ntp77
Rp78
(dp79
g13
I01
sg14
F-0.8649797756461346
sg15
g76
sbs(I-2
I0
tp80
g0
(g9
g2
Ntp81
Rp82
(dp83
g13
I01
sg14
F1.1407799545127397
sg15
g80
sbssS'nodes'
p84
(dp85
I0
g0
(cneat.genes
DefaultNodeGene
p86
g2
Ntp87
Rp88
(dp89
S'activation'
p90
S'sigmoid'
p91
sS'bias'
p92
F0.7993773885603561
sS'response'
p93
F1.0
sg15
I0
sS'aggregation'
p94
S'sum'
p95
sbsI1
g0
(g86
g2
Ntp96
Rp97
(dp98
g90
g91
sg92
F-0.15356509683648234
sg93
F1.0
sg15
I1
sg94
g95
sbssg15
I2945
sS'fitness'
p99
I1000
sb.