ccopy_reg
_reconstructor
p0
(cneat.genome
DefaultGenome
p1
c__builtin__
object
p2
Ntp3
Rp4
(dp5
S'connections'
p6
(dp7
(I-5
I0
tp8
g0
(cneat.genes
DefaultConnectionGene
p9
g2
Ntp10
Rp11
(dp12
S'enabled'
p13
I01
sS'weight'
p14
F6.1805612312259095
sS'key'
p15
g8
sbs(I-2
I1
tp16
g0
(g9
g2
Ntp17
Rp18
(dp19
g13
I01
sg14
F2.3286191439405917
sg15
g16
sbs(I-6
I1
tp20
g0
(g9
g2
Ntp21
Rp22
(dp23
g13
I01
sg14
F0.6651785039052698
sg15
g20
sbs(I-3
I1
tp24
g0
(g9
g2
Ntp25
Rp26
(dp27
g13
I01
sg14
F-5.188254593656915
sg15
g24
sbs(I-4
I1
tp28
g0
(g9
g2
Ntp29
Rp30
(dp31
g13
I01
sg14
F0.07554948360705704
sg15
g28
sbs(I-4
I0
tp32
g0
(g9
g2
Ntp33
Rp34
(dp35
g13
I01
sg14
F1.6064257554696677
sg15
g32
sbs(I-8
I0
tp36
g0
(g9
g2
Ntp37
Rp38
(dp39
g13
I01
sg14
F-3.3688481451625725
sg15
g36
sbssS'nodes'
p40
(dp41
I0
g0
(cneat.genes
DefaultNodeGene
p42
g2
Ntp43
Rp44
(dp45
S'activation'
p46
S'sigmoid'
p47
sS'bias'
p48
F0.6068259456958045
sS'response'
p49
F1.0
sg15
I0
sS'aggregation'
p50
S'sum'
p51
sbsI1
g0
(g42
g2
Ntp52
Rp53
(dp54
g46
g47
sg48
F0.7482286137916307
sg49
F1.0
sg15
I1
sg50
g51
sbssg15
I2627
sS'fitness'
p55
cnumpy.core.multiarray
scalar
p56
(cnumpy
dtype
p57
(S'f8'
p58
I0
I1
tp59
Rp60
(I3
S'<'
p61
NNNI-1
I-1
I0
tp62
bS'\xdb\xe7\xb1\xcaN1\t@'
p63
tp64
Rp65
sb.