ccopy_reg
_reconstructor
p0
(cneat.genome
DefaultGenome
p1
c__builtin__
object
p2
Ntp3
Rp4
(dp5
S'connections'
p6
(dp7
(I-2
I332
tp8
g0
(cneat.genes
DefaultConnectionGene
p9
g2
Ntp10
Rp11
(dp12
S'enabled'
p13
I01
sS'weight'
p14
F1.9172082080536215
sS'key'
p15
g8
sbs(I222
I1
tp16
g0
(g9
g2
Ntp17
Rp18
(dp19
g13
I01
sg14
F-0.000948594386888213
sg15
g16
sbs(I-5
I1
tp20
g0
(g9
g2
Ntp21
Rp22
(dp23
g13
I01
sg14
F2.742112449155212
sg15
g20
sbs(I332
I1
tp24
g0
(g9
g2
Ntp25
Rp26
(dp27
g13
I01
sg14
F-0.58706799464466
sg15
g24
sbs(I-1
I0
tp28
g0
(g9
g2
Ntp29
Rp30
(dp31
g13
I01
sg14
F0.23797116333320972
sg15
g28
sbs(I-6
I0
tp32
g0
(g9
g2
Ntp33
Rp34
(dp35
g13
I01
sg14
F1.8451319675505045
sg15
g32
sbs(I-2
I1
tp36
g0
(g9
g2
Ntp37
Rp38
(dp39
g13
I00
sg14
F-0.5342944985607301
sg15
g36
sbs(I-3
I0
tp40
g0
(g9
g2
Ntp41
Rp42
(dp43
g13
I01
sg14
F2.4276818712782795
sg15
g40
sbs(I1
I1
tp44
g0
(g9
g2
Ntp45
Rp46
(dp47
g13
I01
sg14
F0.4216315862233011
sg15
g44
sbs(I-3
I1
tp48
g0
(g9
g2
Ntp49
Rp50
(dp51
g13
I01
sg14
F-1.843250766428638
sg15
g48
sbs(I-7
I0
tp52
g0
(g9
g2
Ntp53
Rp54
(dp55
g13
I00
sg14
F0.7391920161015747
sg15
g52
sbs(I153
I0
tp56
g0
(g9
g2
Ntp57
Rp58
(dp59
g13
I00
sg14
F0.8570769147018675
sg15
g56
sbs(I-7
I1
tp60
g0
(g9
g2
Ntp61
Rp62
(dp63
g13
I00
sg14
F0.611554032190981
sg15
g60
sbs(I222
I153
tp64
g0
(g9
g2
Ntp65
Rp66
(dp67
g13
I01
sg14
F-1.736261008280371
sg15
g64
sbs(I-2
I153
tp68
g0
(g9
g2
Ntp69
Rp70
(dp71
g13
I01
sg14
F-0.6501205747940265
sg15
g68
sbs(I-2
I0
tp72
g0
(g9
g2
Ntp73
Rp74
(dp75
g13
I00
sg14
F-0.6944945229469668
sg15
g72
sbssS'nodes'
p76
(dp77
I0
g0
(cneat.genes
DefaultNodeGene
p78
g2
Ntp79
Rp80
(dp81
S'activation'
p82
S'sigmoid'
p83
sS'bias'
p84
F4.073163869401025
sS'response'
p85
F1.0
sg15
I0
sS'aggregation'
p86
S'sum'
p87
sbsI1
g0
(g78
g2
Ntp88
Rp89
(dp90
g82
g83
sg84
F-0.7208992959308383
sg85
F1.0
sg15
I1
sg86
g87
sbsI332
g0
(g78
g2
Ntp91
Rp92
(dp93
g82
g83
sg84
F-0.9416576078942793
sg85
F1.0
sg15
I332
sg86
g87
sbsI222
g0
(g78
g2
Ntp94
Rp95
(dp96
g82
g83
sg84
F1.0639735539061574
sg85
F1.0
sg15
I222
sg86
g87
sbsI153
g0
(g78
g2
Ntp97
Rp98
(dp99
g82
g83
sg84
F-1.529884785859789
sg85
F1.0
sg15
I153
sg86
g87
sbssg15
I1789
sS'fitness'
p100
F452.5
sb.