ccopy_reg
_reconstructor
p0
(cneat.genome
DefaultGenome
p1
c__builtin__
object
p2
Ntp3
Rp4
(dp5
S'connections'
p6
(dp7
(I0
I0
tp8
g0
(cneat.genes
DefaultConnectionGene
p9
g2
Ntp10
Rp11
(dp12
S'enabled'
p13
I01
sS'weight'
p14
F-1.3217207855700717
sS'key'
p15
g8
sbs(I-2
I0
tp16
g0
(g9
g2
Ntp17
Rp18
(dp19
g13
I00
sg14
F1.162982008070097
sg15
g16
sbs(I-6
I1
tp20
g0
(g9
g2
Ntp21
Rp22
(dp23
g13
I01
sg14
F5.040548598123231
sg15
g20
sbs(I-3
I1
tp24
g0
(g9
g2
Ntp25
Rp26
(dp27
g13
I01
sg14
F-2.9013191654057473
sg15
g24
sbs(I-3
I191
tp28
g0
(g9
g2
Ntp29
Rp30
(dp31
g13
I01
sg14
F-0.3350039659841124
sg15
g28
sbs(I-3
I0
tp32
g0
(g9
g2
Ntp33
Rp34
(dp35
g13
I00
sg14
F-0.6366120926065513
sg15
g32
sbs(I29
I1
tp36
g0
(g9
g2
Ntp37
Rp38
(dp39
g13
I00
sg14
F0.9460236808763255
sg15
g36
sbs(I-4
I1
tp40
g0
(g9
g2
Ntp41
Rp42
(dp43
g13
I01
sg14
F-0.33680151285508136
sg15
g40
sbs(I-7
I1
tp44
g0
(g9
g2
Ntp45
Rp46
(dp47
g13
I01
sg14
F0.5783940762471131
sg15
g44
sbs(I-4
I0
tp48
g0
(g9
g2
Ntp49
Rp50
(dp51
g13
I01
sg14
F-0.9314679934409054
sg15
g48
sbs(I-8
I1
tp52
g0
(g9
g2
Ntp53
Rp54
(dp55
g13
I01
sg14
F-0.19886218111146559
sg15
g52
sbs(I1
I29
tp56
g0
(g9
g2
Ntp57
Rp58
(dp59
g13
I01
sg14
F-0.16692996629423396
sg15
g56
sbs(I191
I0
tp60
g0
(g9
g2
Ntp61
Rp62
(dp63
g13
I01
sg14
F-1.0343568398834184
sg15
g60
sbs(I1
I1
tp64
g0
(g9
g2
Ntp65
Rp66
(dp67
g13
I00
sg14
F1.056967042078087
sg15
g64
sbs(I29
I29
tp68
g0
(g9
g2
Ntp69
Rp70
(dp71
g13
I01
sg14
F3.627643975328842
sg15
g68
sbssS'nodes'
p72
(dp73
I0
g0
(cneat.genes
DefaultNodeGene
p74
g2
Ntp75
Rp76
(dp77
S'activation'
p78
S'sigmoid'
p79
sS'bias'
p80
F4.417326690598567
sS'response'
p81
F1.0
sg15
I0
sS'aggregation'
p82
S'sum'
p83
sbsI1
g0
(g74
g2
Ntp84
Rp85
(dp86
g78
g79
sg80
F-0.9947962484408904
sg81
F1.0
sg15
I1
sg82
g83
sbsI29
g0
(g74
g2
Ntp87
Rp88
(dp89
g78
g79
sg80
F0.08670935164942095
sg81
F1.0
sg15
I29
sg82
g83
sbsI191
g0
(g74
g2
Ntp90
Rp91
(dp92
g78
g79
sg80
F2.009737464285304
sg81
F1.0
sg15
I191
sg82
g83
sbssg15
I1619
sS'fitness'
p93
F456.5
sb.