ccopy_reg
_reconstructor
p0
(cneat.genome
DefaultGenome
p1
c__builtin__
object
p2
Ntp3
Rp4
(dp5
S'connections'
p6
(dp7
(I0
I406
tp8
g0
(cneat.genes
DefaultConnectionGene
p9
g2
Ntp10
Rp11
(dp12
S'enabled'
p13
I01
sS'weight'
p14
F-0.2371813291043181
sS'key'
p15
g8
sbs(I-2
I1
tp16
g0
(g9
g2
Ntp17
Rp18
(dp19
g13
I01
sg14
F-1.2182986739276715
sg15
g16
sbs(I-2
I0
tp20
g0
(g9
g2
Ntp21
Rp22
(dp23
g13
I01
sg14
F1.164591116131772
sg15
g20
sbs(I406
I406
tp24
g0
(g9
g2
Ntp25
Rp26
(dp27
g13
I01
sg14
F-2.457101328900512
sg15
g24
sbs(I-6
I0
tp28
g0
(g9
g2
Ntp29
Rp30
(dp31
g13
I01
sg14
F-0.36848491802109173
sg15
g28
sbs(I-1
I0
tp32
g0
(g9
g2
Ntp33
Rp34
(dp35
g13
I01
sg14
F-5.166151328754735
sg15
g32
sbs(I-3
I0
tp36
g0
(g9
g2
Ntp37
Rp38
(dp39
g13
I00
sg14
F-0.7670119843507397
sg15
g36
sbs(I-4
I1
tp40
g0
(g9
g2
Ntp41
Rp42
(dp43
g13
I01
sg14
F-3.552680743792669
sg15
g40
sbs(I-7
I1
tp44
g0
(g9
g2
Ntp45
Rp46
(dp47
g13
I01
sg14
F4.2871882014441
sg15
g44
sbs(I413
I0
tp48
g0
(g9
g2
Ntp49
Rp50
(dp51
g13
I01
sg14
F-0.36205614109709144
sg15
g48
sbs(I-4
I0
tp52
g0
(g9
g2
Ntp53
Rp54
(dp55
g13
I01
sg14
F1.7897377983619511
sg15
g52
sbs(I-8
I1
tp56
g0
(g9
g2
Ntp57
Rp58
(dp59
g13
I00
sg14
F0.48166160244154455
sg15
g56
sbs(I-8
I406
tp60
g0
(g9
g2
Ntp61
Rp62
(dp63
g13
I01
sg14
F-0.16962319414283578
sg15
g60
sbs(I406
I1
tp64
g0
(g9
g2
Ntp65
Rp66
(dp67
g13
I00
sg14
F-0.6984295481245846
sg15
g64
sbs(I-8
I0
tp68
g0
(g9
g2
Ntp69
Rp70
(dp71
g13
I01
sg14
F8.275170049398128
sg15
g68
sbs(I1
I1
tp72
g0
(g9
g2
Ntp73
Rp74
(dp75
g13
I01
sg14
F-2.516461183415372
sg15
g72
sbs(I-3
I413
tp76
g0
(g9
g2
Ntp77
Rp78
(dp79
g13
I01
sg14
F-0.7430969752064359
sg15
g76
sbssS'nodes'
p80
(dp81
I0
g0
(cneat.genes
DefaultNodeGene
p82
g2
Ntp83
Rp84
(dp85
S'activation'
p86
S'sigmoid'
p87
sS'bias'
p88
F-0.7648056197798814
sS'response'
p89
F1.0
sg15
I0
sS'aggregation'
p90
S'sum'
p91
sbsI1
g0
(g82
g2
Ntp92
Rp93
(dp94
g86
g87
sg88
F2.0472785863808527
sg89
F1.0
sg15
I1
sg90
g91
sbsI413
g0
(g82
g2
Ntp95
Rp96
(dp97
g86
g87
sg88
F-3.4692604013125066
sg89
F1.0
sg15
I413
sg90
g91
sbsI406
g0
(g82
g2
Ntp98
Rp99
(dp100
g86
g87
sg88
F0.03507653529830873
sg89
F1.0
sg15
I406
sg90
g91
sbssg15
I3631
sS'fitness'
p101
F308.1666666666667
sb.